target datalayout = "e-m:e-p270:32:32-p271:32:32-p272:64:64-i64:64-i128:128-f80:128-n8:16:32:64-S128"
target triple = "x86_64-pc-linux-gnu"

@ncid_injected = internal global i64 0, align 8
@add_ncid_frame_cb.new_conn_id_frame = internal global [28 x i8] c"\18\01\01\083DUf\DE\AD\BE\EF\AB\CD\EF\01\122#EV\06\08\89\A1\B2\C3\D4", align 16

; Function Attrs: nounwind uwtable
define internal i32 @add_ncid_frame_cb(ptr noundef %0, ptr noundef %1, ptr noundef %2, i64 noundef %3, ptr noundef %4) #0 {
  %6 = alloca i32, align 4
  %7 = alloca ptr, align 8
  %8 = alloca ptr, align 8
  %9 = alloca ptr, align 8
  %10 = alloca i64, align 8
  %11 = alloca ptr, align 8
  store ptr %0, ptr %7, align 8, !tbaa !19
  store ptr %1, ptr %8, align 8, !tbaa !21
  store ptr %2, ptr %9, align 8, !tbaa !4
  store i64 %3, ptr %10, align 8, !tbaa !17
  store ptr %4, ptr %11, align 8, !tbaa !23
  %12 = load i64, ptr @ncid_injected, align 8, !tbaa !17
  %13 = add i64 %12, 1
  store i64 %13, ptr @ncid_injected, align 8, !tbaa !17
  %14 = icmp ne i64 %12, 0
  br i1 %14, label %15, label %16

15:                                               ; preds = %5
  store i32 1, ptr %6, align 4
  br label %19

16:                                               ; preds = %5
  %17 = load ptr, ptr %7, align 8, !tbaa !19
  %18 = call i32 @qtest_fault_prepend_frame(ptr noundef %17, ptr noundef @add_ncid_frame_cb.new_conn_id_frame, i64 noundef 28)
  store i32 %18, ptr %6, align 4
  br label %19

19:                                               ; preds = %16, %15
  %20 = load i32, ptr %6, align 4
  ret i32 %20
}