; Function Attrs: nounwind uwtable
define internal i32 @add_ncid_frame_cb(ptr noundef %0, ptr readnone captures(none) %1, ptr readnone captures(none) %2, i64 %3, ptr readnone captures(none) %4) #1 {
  %6 = load i64, ptr @ncid_injected, align 8, !tbaa !15
  %7 = add i64 %6, 1
  store i64 %7, ptr @ncid_injected, align 8, !tbaa !15
  %.not = icmp eq i64 %6, 0
  br i1 %.not, label %8, label %10

8:                                                ; preds = %5
  %9 = tail call i32 @qtest_fault_prepend_frame(ptr noundef %0, ptr noundef nonnull @add_ncid_frame_cb.new_conn_id_frame, i64 noundef 28) #4
  br label %10

10:                                               ; preds = %5, %8
  %.0 = phi i32 [ %9, %8 ], [ 1, %5 ]
  ret i32 %.0
}